target datalayout = "e-m:e-p270:32:32-p271:32:32-p272:64:64-i64:64-i128:128-f80:128-n8:16:32:64-S128"
target triple = "x86_64-pc-linux-gnu"

%struct._arg = type { ptr, ptr, ptr, i32, i32, i32, i32 }
%struct.asdl_arg_seq = type { i64, ptr, [1 x ptr] }

@PyExc_ValueError = external global ptr, align 8
@.str.3 = private unnamed_addr constant [42 x i8] c"AST node line range (%d, %d) is not valid\00", align 1
@.str.4 = private unnamed_addr constant [68 x i8] c"AST node column range (%d, %d) for line range (%d, %d) is not valid\00", align 1
@.str.5 = private unnamed_addr constant [43 x i8] c"line %d, column %d-%d is not a valid range\00", align 1

; Function Attrs: nounwind uwtable
define internal i32 @validate_args(ptr noundef %0, ptr noundef %1) #0 {
  %3 = alloca i32, align 4
  %4 = alloca ptr, align 8
  %5 = alloca ptr, align 8
  %6 = alloca i64, align 8
  %7 = alloca i32, align 4
  %8 = alloca ptr, align 8
  store ptr %0, ptr %4, align 8, !tbaa !31
  store ptr %1, ptr %5, align 8, !tbaa !33
  call void @llvm.lifetime.start.p0(i64 8, ptr %6) #6
  store i64 0, ptr %6, align 8, !tbaa !34
  br label %9

9:                                                ; preds = %130, %2
  %10 = load i64, ptr %6, align 8, !tbaa !34
  %11 = load ptr, ptr %5, align 8, !tbaa !33
  %12 = icmp eq ptr %11, null
  br i1 %12, label %13, label %14

13:                                               ; preds = %9
  br label %18

14:                                               ; preds = %9
  %15 = load ptr, ptr %5, align 8, !tbaa !33
  %16 = getelementptr inbounds nuw %struct.asdl_arg_seq, ptr %15, i32 0, i32 0
  %17 = load i64, ptr %16, align 8, !tbaa !35
  br label %18

18:                                               ; preds = %14, %13
  %19 = phi i64 [ 0, %13 ], [ %17, %14 ]
  %20 = icmp slt i64 %10, %19
  br i1 %20, label %22, label %21

21:                                               ; preds = %18
  store i32 2, ptr %7, align 4
  br label %133

22:                                               ; preds = %18
  call void @llvm.lifetime.start.p0(i64 8, ptr %8) #6
  %23 = load ptr, ptr %5, align 8, !tbaa !33
  %24 = getelementptr inbounds nuw %struct.asdl_arg_seq, ptr %23, i32 0, i32 2
  %25 = load i64, ptr %6, align 8, !tbaa !34
  %26 = getelementptr [1 x ptr], ptr %24, i64 0, i64 %25
  %27 = load ptr, ptr %26, align 8, !tbaa !123
  store ptr %27, ptr %8, align 8, !tbaa !123
  %28 = load ptr, ptr %8, align 8, !tbaa !123
  %29 = getelementptr inbounds nuw %struct._arg, ptr %28, i32 0, i32 3
  %30 = load i32, ptr %29, align 8, !tbaa !124
  %31 = load ptr, ptr %8, align 8, !tbaa !123
  %32 = getelementptr inbounds nuw %struct._arg, ptr %31, i32 0, i32 5
  %33 = load i32, ptr %32, align 8, !tbaa !125
  %34 = icmp sgt i32 %30, %33
  br i1 %34, label %35, label %44

35:                                               ; preds = %22
  %36 = load ptr, ptr @PyExc_ValueError, align 8, !tbaa !30
  %37 = load ptr, ptr %8, align 8, !tbaa !123
  %38 = getelementptr inbounds nuw %struct._arg, ptr %37, i32 0, i32 3
  %39 = load i32, ptr %38, align 8, !tbaa !124
  %40 = load ptr, ptr %8, align 8, !tbaa !123
  %41 = getelementptr inbounds nuw %struct._arg, ptr %40, i32 0, i32 5
  %42 = load i32, ptr %41, align 8, !tbaa !125
  %43 = call ptr (ptr, ptr, ...) @PyErr_Format(ptr noundef %36, ptr noundef @.str.3, i32 noundef %39, i32 noundef %42)
  store i32 0, ptr %3, align 4
  store i32 1, ptr %7, align 4
  br label %127

44:                                               ; preds = %22
  %45 = load ptr, ptr %8, align 8, !tbaa !123
  %46 = getelementptr inbounds nuw %struct._arg, ptr %45, i32 0, i32 3
  %47 = load i32, ptr %46, align 8, !tbaa !124
  %48 = icmp slt i32 %47, 0
  br i1 %48, label %49, label %57

49:                                               ; preds = %44
  %50 = load ptr, ptr %8, align 8, !tbaa !123
  %51 = getelementptr inbounds nuw %struct._arg, ptr %50, i32 0, i32 5
  %52 = load i32, ptr %51, align 8, !tbaa !125
  %53 = load ptr, ptr %8, align 8, !tbaa !123
  %54 = getelementptr inbounds nuw %struct._arg, ptr %53, i32 0, i32 3
  %55 = load i32, ptr %54, align 8, !tbaa !124
  %56 = icmp ne i32 %52, %55
  br i1 %56, label %70, label %57

57:                                               ; preds = %49, %44
  %58 = load ptr, ptr %8, align 8, !tbaa !123
  %59 = getelementptr inbounds nuw %struct._arg, ptr %58, i32 0, i32 4
  %60 = load i32, ptr %59, align 4, !tbaa !126
  %61 = icmp slt i32 %60, 0
  br i1 %61, label %62, label %85

62:                                               ; preds = %57
  %63 = load ptr, ptr %8, align 8, !tbaa !123
  %64 = getelementptr inbounds nuw %struct._arg, ptr %63, i32 0, i32 4
  %65 = load i32, ptr %64, align 4, !tbaa !126
  %66 = load ptr, ptr %8, align 8, !tbaa !123
  %67 = getelementptr inbounds nuw %struct._arg, ptr %66, i32 0, i32 6
  %68 = load i32, ptr %67, align 4, !tbaa !127
  %69 = icmp ne i32 %65, %68
  br i1 %69, label %70, label %85

70:                                               ; preds = %62, %49
  %71 = load ptr, ptr @PyExc_ValueError, align 8, !tbaa !30
  %72 = load ptr, ptr %8, align 8, !tbaa !123
  %73 = getelementptr inbounds nuw %struct._arg, ptr %72, i32 0, i32 4
  %74 = load i32, ptr %73, align 4, !tbaa !126
  %75 = load ptr, ptr %8, align 8, !tbaa !123
  %76 = getelementptr inbounds nuw %struct._arg, ptr %75, i32 0, i32 6
  %77 = load i32, ptr %76, align 4, !tbaa !127
  %78 = load ptr, ptr %8, align 8, !tbaa !123
  %79 = getelementptr inbounds nuw %struct._arg, ptr %78, i32 0, i32 3
  %80 = load i32, ptr %79, align 8, !tbaa !124
  %81 = load ptr, ptr %8, align 8, !tbaa !123
  %82 = getelementptr inbounds nuw %struct._arg, ptr %81, i32 0, i32 5
  %83 = load i32, ptr %82, align 8, !tbaa !125
  %84 = call ptr (ptr, ptr, ...) @PyErr_Format(ptr noundef %71, ptr noundef @.str.4, i32 noundef %74, i32 noundef %77, i32 noundef %80, i32 noundef %83)
  store i32 0, ptr %3, align 4
  store i32 1, ptr %7, align 4
  br label %127

85:                                               ; preds = %62, %57
  %86 = load ptr, ptr %8, align 8, !tbaa !123
  %87 = getelementptr inbounds nuw %struct._arg, ptr %86, i32 0, i32 3
  %88 = load i32, ptr %87, align 8, !tbaa !124
  %89 = load ptr, ptr %8, align 8, !tbaa !123
  %90 = getelementptr inbounds nuw %struct._arg, ptr %89, i32 0, i32 5
  %91 = load i32, ptr %90, align 8, !tbaa !125
  %92 = icmp eq i32 %88, %91
  br i1 %92, label %93, label %113

93:                                               ; preds = %85
  %94 = load ptr, ptr %8, align 8, !tbaa !123
  %95 = getelementptr inbounds nuw %struct._arg, ptr %94, i32 0, i32 4
  %96 = load i32, ptr %95, align 4, !tbaa !126
  %97 = load ptr, ptr %8, align 8, !tbaa !123
  %98 = getelementptr inbounds nuw %struct._arg, ptr %97, i32 0, i32 6
  %99 = load i32, ptr %98, align 4, !tbaa !127
  %100 = icmp sgt i32 %96, %99
  br i1 %100, label %101, label %113

101:                                              ; preds = %93
  %102 = load ptr, ptr @PyExc_ValueError, align 8, !tbaa !30
  %103 = load ptr, ptr %8, align 8, !tbaa !123
  %104 = getelementptr inbounds nuw %struct._arg, ptr %103, i32 0, i32 3
  %105 = load i32, ptr %104, align 8, !tbaa !124
  %106 = load ptr, ptr %8, align 8, !tbaa !123
  %107 = getelementptr inbounds nuw %struct._arg, ptr %106, i32 0, i32 4
  %108 = load i32, ptr %107, align 4, !tbaa !126
  %109 = load ptr, ptr %8, align 8, !tbaa !123
  %110 = getelementptr inbounds nuw %struct._arg, ptr %109, i32 0, i32 6
  %111 = load i32, ptr %110, align 4, !tbaa !127
  %112 = call ptr (ptr, ptr, ...) @PyErr_Format(ptr noundef %102, ptr noundef @.str.5, i32 noundef %105, i32 noundef %108, i32 noundef %111)
  store i32 0, ptr %3, align 4
  store i32 1, ptr %7, align 4
  br label %127

113:                                              ; preds = %93, %85
  %114 = load ptr, ptr %8, align 8, !tbaa !123
  %115 = getelementptr inbounds nuw %struct._arg, ptr %114, i32 0, i32 1
  %116 = load ptr, ptr %115, align 8, !tbaa !94
  %117 = icmp ne ptr %116, null
  br i1 %117, label %118, label %126

118:                                              ; preds = %113
  %119 = load ptr, ptr %4, align 8, !tbaa !31
  %120 = load ptr, ptr %8, align 8, !tbaa !123
  %121 = getelementptr inbounds nuw %struct._arg, ptr %120, i32 0, i32 1
  %122 = load ptr, ptr %121, align 8, !tbaa !94
  %123 = call i32 @validate_expr(ptr noundef %119, ptr noundef %122, i32 noundef 1)
  %124 = icmp ne i32 %123, 0
  br i1 %124, label %126, label %125

125:                                              ; preds = %118
  store i32 0, ptr %3, align 4
  store i32 1, ptr %7, align 4
  br label %127

126:                                              ; preds = %118, %113
  store i32 0, ptr %7, align 4
  br label %127

127:                                              ; preds = %126, %125, %101, %70, %35
  call void @llvm.lifetime.end.p0(i64 8, ptr %8) #6
  %128 = load i32, ptr %7, align 4
  switch i32 %128, label %133 [
    i32 0, label %129
  ]

129:                                              ; preds = %127
  br label %130

130:                                              ; preds = %129
  %131 = load i64, ptr %6, align 8, !tbaa !34
  %132 = add i64 %131, 1
  store i64 %132, ptr %6, align 8, !tbaa !34
  br label %9, !llvm.loop !128

133:                                              ; preds = %127, %21
  call void @llvm.lifetime.end.p0(i64 8, ptr %6) #6
  %134 = load i32, ptr %7, align 4
  switch i32 %134, label %138 [
    i32 2, label %135
    i32 1, label %136
  ]

135:                                              ; preds = %133
  store i32 1, ptr %3, align 4
  br label %136

136:                                              ; preds = %135, %133
  %137 = load i32, ptr %3, align 4
  ret i32 %137

138:                                              ; preds = %133
  unreachable
}