; Function Attrs: nounwind uwtable
define internal fastcc noundef range(i32 0, 2) i32 @validate_args(ptr noundef nonnull captures(none) %0, ptr noundef readonly %1) unnamed_addr #0 {
  %3 = icmp eq ptr %1, null
  %4 = getelementptr inbounds nuw i8, ptr %1, i64 16
  br i1 %3, label %.critedge, label %.split

.split:                                           ; preds = %2
  %5 = load i64, ptr %1, align 8, !tbaa !27
  %.not4880 = icmp slt i64 %5, 1
  br i1 %.not4880, label %.critedge, label %.lr.ph

.lr.ph:                                           ; preds = %.split, %40
  %6 = phi i64 [ %41, %40 ], [ %5, %.split ]
  %.03481 = phi i64 [ %42, %40 ], [ 0, %.split ]
  %7 = getelementptr [1 x ptr], ptr %4, i64 0, i64 %.03481
  %8 = load ptr, ptr %7, align 8, !tbaa !114
  %9 = getelementptr inbounds nuw i8, ptr %8, i64 24
  %10 = load i32, ptr %9, align 8, !tbaa !115
  %11 = getelementptr inbounds nuw i8, ptr %8, i64 32
  %12 = load i32, ptr %11, align 8, !tbaa !116
  %13 = icmp sgt i32 %10, %12
  br i1 %13, label %.split64, label %16

.split64:                                         ; preds = %.lr.ph
  %14 = load ptr, ptr @PyExc_ValueError, align 8, !tbaa !33
  %15 = tail call ptr (ptr, ptr, ...) @PyErr_Format(ptr noundef %14, ptr noundef nonnull @.str.3, i32 noundef %10, i32 noundef %12) #5
  br label %.critedge

16:                                               ; preds = %.lr.ph
  %17 = icmp sgt i32 %10, -1
  %.not = icmp eq i32 %12, %10
  %or.cond = or i1 %17, %.not
  %18 = getelementptr inbounds nuw i8, ptr %8, i64 28
  %19 = load i32, ptr %18, align 4, !tbaa !117
  br i1 %or.cond, label %20, label %..split69_crit_edge

..split69_crit_edge:                              ; preds = %16
  %.phi.trans.insert104 = getelementptr inbounds nuw i8, ptr %8, i64 36
  %.pre105 = load i32, ptr %.phi.trans.insert104, align 4, !tbaa !118
  br label %.split69

20:                                               ; preds = %16
  %21 = icmp slt i32 %19, 0
  br i1 %21, label %22, label %28

22:                                               ; preds = %20
  %23 = getelementptr inbounds nuw i8, ptr %8, i64 36
  %24 = load i32, ptr %23, align 4, !tbaa !118
  %.not45 = icmp eq i32 %19, %24
  br i1 %.not45, label %28, label %.split69

.split69:                                         ; preds = %22, %..split69_crit_edge
  %25 = phi i32 [ %.pre105, %..split69_crit_edge ], [ %24, %22 ]
  %26 = load ptr, ptr @PyExc_ValueError, align 8, !tbaa !33
  %27 = tail call ptr (ptr, ptr, ...) @PyErr_Format(ptr noundef %26, ptr noundef nonnull @.str.4, i32 noundef %19, i32 noundef %25, i32 noundef %10, i32 noundef %12) #5
  br label %.critedge

28:                                               ; preds = %22, %20
  br i1 %.not, label %29, label %35

29:                                               ; preds = %28
  %30 = getelementptr inbounds nuw i8, ptr %8, i64 36
  %31 = load i32, ptr %30, align 4, !tbaa !118
  %32 = icmp sgt i32 %19, %31
  br i1 %32, label %.split75, label %35

.split75:                                         ; preds = %29
  %33 = load ptr, ptr @PyExc_ValueError, align 8, !tbaa !33
  %34 = tail call ptr (ptr, ptr, ...) @PyErr_Format(ptr noundef %33, ptr noundef nonnull @.str.5, i32 noundef %10, i32 noundef %19, i32 noundef %31) #5
  br label %.critedge

35:                                               ; preds = %29, %28
  %36 = getelementptr inbounds nuw i8, ptr %8, i64 8
  %37 = load ptr, ptr %36, align 8, !tbaa !100
  %.not46 = icmp eq ptr %37, null
  br i1 %.not46, label %40, label %38

38:                                               ; preds = %35
  %39 = tail call fastcc i32 @validate_expr(ptr noundef %0, ptr noundef nonnull %37, i32 noundef 1)
  %.not47 = icmp eq i32 %39, 0
  br i1 %.not47, label %.critedge, label %._crit_edge

._crit_edge:                                      ; preds = %38
  %.pre106 = load i64, ptr %1, align 8, !tbaa !27
  br label %40

40:                                               ; preds = %._crit_edge, %35
  %41 = phi i64 [ %.pre106, %._crit_edge ], [ %6, %35 ]
  %42 = add nuw nsw i64 %.03481, 1
  %.not48.not = icmp slt i64 %42, %41
  br i1 %.not48.not, label %.lr.ph, label %.critedge, !llvm.loop !119

.critedge:                                        ; preds = %38, %40, %2, %.split, %.split64, %.split69, %.split75
  %.not4862 = phi i32 [ 0, %.split64 ], [ 0, %.split69 ], [ 0, %.split75 ], [ 1, %2 ], [ 1, %.split ], [ 1, %40 ], [ 0, %38 ]
  ret i32 %.not4862
}